; Function Attrs: mustprogress nounwind uwtable
define void @_ZN8proxygen11HTTPSession18onPingReplyLatencyEl(ptr nocapture noundef nonnull readonly align 8 dereferenceable(2504) %this, i64 noundef %latency) unnamed_addr #4 align 2 personality ptr @__gxx_personality_v0 {
entry:
  %infoCallback_ = getelementptr inbounds i8, ptr %this, i64 216
  %0 = load ptr, ptr %infoCallback_, align 8
  %tobool = icmp ne ptr %0, null
  %cmp = icmp sgt i64 %latency, -1
  %or.cond = and i1 %cmp, %tobool
  br i1 %or.cond, label %if.then, label %if.end

if.then:                                          ; preds = %entry
  %vtable = load ptr, ptr %0, align 8
  %vfn = getelementptr inbounds i8, ptr %vtable, i64 168
  %1 = load ptr, ptr %vfn, align 8
  invoke void %1(ptr noundef nonnull align 8 dereferenceable(8) %0, i64 noundef %latency)
          to label %if.end unwind label %terminate.lpad

if.end:                                           ; preds = %if.then, %entry
  ret void

terminate.lpad:                                   ; preds = %if.then
  %2 = landingpad { ptr, i32 }
          catch ptr null
  %3 = extractvalue { ptr, i32 } %2, 0
  tail call void @__clang_call_terminate(ptr %3) #40
  unreachable
}